; Function Attrs: nofree nosync nounwind memory(readwrite, inaccessiblemem: none) uwtable
define void @Kit_DsdWrite(ptr noundef %0, ptr noundef readonly captures(none) %1) local_unnamed_addr #13 {
  %3 = getelementptr inbounds nuw i8, ptr %1, i64 6
  %4 = load i16, ptr %3, align 2, !tbaa !51
  %5 = and i16 %4, 1
  %.not = icmp eq i16 %5, 0
  br i1 %.not, label %8, label %6

6:                                                ; preds = %2
  %7 = getelementptr inbounds nuw i8, ptr %0, i64 1
  store i8 33, ptr %0, align 1, !tbaa !47
  %.pre = load i16, ptr %3, align 2, !tbaa !51
  br label %8

8:                                                ; preds = %6, %2
  %9 = phi i16 [ %.pre, %6 ], [ %4, %2 ]
  %.0 = phi ptr [ %7, %6 ], [ %0, %2 ]
  %10 = lshr i16 %9, 1
  %11 = zext nneg i16 %10 to i32
  %12 = tail call ptr @Kit_DsdWrite_rec(ptr noundef %.0, ptr noundef nonnull %1, i32 noundef %11)
  store i8 0, ptr %12, align 1, !tbaa !47
  ret void
}